target datalayout = "e-m:e-p270:32:32-p271:32:32-p272:64:64-i64:64-i128:128-f80:128-n8:16:32:64-S128"
target triple = "x86_64-pc-linux-gnu"

%struct.h5dump_table_list_t = type { i64, i64, ptr }
%struct.find_objs_t = type { i64, ptr, ptr, ptr }
%struct.h5dump_table_items_t = type { i64, i64, ptr, ptr, ptr }

@table_list = dso_local global %struct.h5dump_table_list_t zeroinitializer, align 8

; Function Attrs: nounwind uwtable
define dso_local i64 @table_list_add(i64 noundef %0, i64 noundef %1) #0 {
  %3 = alloca i64, align 8
  %4 = alloca i64, align 8
  %5 = alloca i64, align 8
  %6 = alloca i64, align 8
  %7 = alloca %struct.find_objs_t, align 8
  %8 = alloca ptr, align 8
  store i64 %0, ptr %4, align 8
  store i64 %1, ptr %5, align 8
  %9 = load i64, ptr getelementptr inbounds (%struct.h5dump_table_list_t, ptr @table_list, i32 0, i32 1), align 8
  %10 = load i64, ptr @table_list, align 8
  %11 = icmp eq i64 %9, %10
  br i1 %11, label %12, label %30

12:                                               ; preds = %2
  %13 = load i64, ptr @table_list, align 8
  %14 = mul i64 %13, 2
  %15 = icmp ugt i64 1, %14
  br i1 %15, label %16, label %17

16:                                               ; preds = %12
  br label %20

17:                                               ; preds = %12
  %18 = load i64, ptr @table_list, align 8
  %19 = mul i64 %18, 2
  br label %20

20:                                               ; preds = %17, %16
  %21 = phi i64 [ 1, %16 ], [ %19, %17 ]
  store i64 %21, ptr @table_list, align 8
  %22 = load ptr, ptr getelementptr inbounds (%struct.h5dump_table_list_t, ptr @table_list, i32 0, i32 2), align 8
  %23 = load i64, ptr @table_list, align 8
  %24 = mul i64 %23, 40
  %25 = call ptr @realloc(ptr noundef %22, i64 noundef %24) #10
  store ptr %25, ptr %8, align 8
  %26 = icmp eq ptr null, %25
  br i1 %26, label %27, label %28

27:                                               ; preds = %20
  store i64 -1, ptr %3, align 8
  br label %72

28:                                               ; preds = %20
  %29 = load ptr, ptr %8, align 8
  store ptr %29, ptr getelementptr inbounds (%struct.h5dump_table_list_t, ptr @table_list, i32 0, i32 2), align 8
  br label %30

30:                                               ; preds = %28, %2
  %31 = load i64, ptr getelementptr inbounds (%struct.h5dump_table_list_t, ptr @table_list, i32 0, i32 1), align 8
  %32 = add i64 %31, 1
  store i64 %32, ptr getelementptr inbounds (%struct.h5dump_table_list_t, ptr @table_list, i32 0, i32 1), align 8
  store i64 %31, ptr %6, align 8
  %33 = load i64, ptr %5, align 8
  %34 = load ptr, ptr getelementptr inbounds (%struct.h5dump_table_list_t, ptr @table_list, i32 0, i32 2), align 8
  %35 = load i64, ptr %6, align 8
  %36 = getelementptr inbounds %struct.h5dump_table_items_t, ptr %34, i64 %35
  %37 = getelementptr inbounds %struct.h5dump_table_items_t, ptr %36, i32 0, i32 0
  store i64 %33, ptr %37, align 8
  %38 = load i64, ptr %4, align 8
  %39 = load ptr, ptr getelementptr inbounds (%struct.h5dump_table_list_t, ptr @table_list, i32 0, i32 2), align 8
  %40 = load i64, ptr %6, align 8
  %41 = getelementptr inbounds %struct.h5dump_table_items_t, ptr %39, i64 %40
  %42 = getelementptr inbounds %struct.h5dump_table_items_t, ptr %41, i32 0, i32 1
  store i64 %38, ptr %42, align 8
  %43 = load i64, ptr %4, align 8
  %44 = call i32 @H5Iinc_ref(i64 noundef %43)
  %45 = icmp slt i32 %44, 0
  br i1 %45, label %46, label %49

46:                                               ; preds = %30
  %47 = load i64, ptr getelementptr inbounds (%struct.h5dump_table_list_t, ptr @table_list, i32 0, i32 1), align 8
  %48 = add i64 %47, -1
  store i64 %48, ptr getelementptr inbounds (%struct.h5dump_table_list_t, ptr @table_list, i32 0, i32 1), align 8
  store i64 -1, ptr %3, align 8
  br label %72

49:                                               ; preds = %30
  %50 = load i64, ptr %4, align 8
  %51 = load ptr, ptr getelementptr inbounds (%struct.h5dump_table_list_t, ptr @table_list, i32 0, i32 2), align 8
  %52 = load i64, ptr %6, align 8
  %53 = getelementptr inbounds %struct.h5dump_table_items_t, ptr %51, i64 %52
  %54 = getelementptr inbounds %struct.h5dump_table_items_t, ptr %53, i32 0, i32 2
  %55 = load ptr, ptr getelementptr inbounds (%struct.h5dump_table_list_t, ptr @table_list, i32 0, i32 2), align 8
  %56 = load i64, ptr %6, align 8
  %57 = getelementptr inbounds %struct.h5dump_table_items_t, ptr %55, i64 %56
  %58 = getelementptr inbounds %struct.h5dump_table_items_t, ptr %57, i32 0, i32 3
  %59 = load ptr, ptr getelementptr inbounds (%struct.h5dump_table_list_t, ptr @table_list, i32 0, i32 2), align 8
  %60 = load i64, ptr %6, align 8
  %61 = getelementptr inbounds %struct.h5dump_table_items_t, ptr %59, i64 %60
  %62 = getelementptr inbounds %struct.h5dump_table_items_t, ptr %61, i32 0, i32 4
  %63 = call i32 @init_objs(i64 noundef %50, ptr noundef %7, ptr noundef %54, ptr noundef %58, ptr noundef %62)
  %64 = icmp slt i32 %63, 0
  br i1 %64, label %65, label %70

65:                                               ; preds = %49
  %66 = load i64, ptr %4, align 8
  %67 = call i32 @H5Idec_ref(i64 noundef %66)
  %68 = load i64, ptr getelementptr inbounds (%struct.h5dump_table_list_t, ptr @table_list, i32 0, i32 1), align 8
  %69 = add i64 %68, -1
  store i64 %69, ptr getelementptr inbounds (%struct.h5dump_table_list_t, ptr @table_list, i32 0, i32 1), align 8
  store i64 -1, ptr %3, align 8
  br label %72

70:                                               ; preds = %49
  %71 = load i64, ptr %6, align 8
  store i64 %71, ptr %3, align 8
  br label %72

72:                                               ; preds = %70, %65, %46, %27
  %73 = load i64, ptr %3, align 8
  ret i64 %73
}