; Function Attrs: nounwind uwtable
define dso_local i64 @table_list_add(i64 noundef %0, i64 noundef %1) local_unnamed_addr #0 {
  %3 = alloca %struct.find_objs_t, align 8
  %4 = load i64, ptr getelementptr inbounds (i8, ptr @table_list, i64 8), align 8
  %5 = load i64, ptr @table_list, align 8
  %6 = icmp eq i64 %4, %5
  %.pre14 = load ptr, ptr getelementptr inbounds (i8, ptr @table_list, i64 16), align 8
  br i1 %6, label %7, label %14

7:                                                ; preds = %2
  %8 = shl i64 %4, 1
  %9 = tail call i64 @llvm.umax.i64(i64 %8, i64 1)
  store i64 %9, ptr @table_list, align 8
  %10 = mul i64 %9, 40
  %11 = tail call ptr @realloc(ptr noundef %.pre14, i64 noundef %10) #21
  %12 = icmp eq ptr %11, null
  br i1 %12, label %35, label %13

13:                                               ; preds = %7
  store ptr %11, ptr getelementptr inbounds (i8, ptr @table_list, i64 16), align 8
  %.pre = load i64, ptr getelementptr inbounds (i8, ptr @table_list, i64 8), align 8
  br label %14

14:                                               ; preds = %13, %2
  %15 = phi ptr [ %11, %13 ], [ %.pre14, %2 ]
  %16 = phi i64 [ %.pre, %13 ], [ %4, %2 ]
  %17 = add i64 %16, 1
  store i64 %17, ptr getelementptr inbounds (i8, ptr @table_list, i64 8), align 8
  %18 = getelementptr inbounds %struct.h5dump_table_items_t, ptr %15, i64 %16
  store i64 %1, ptr %18, align 8
  %19 = load ptr, ptr getelementptr inbounds (i8, ptr @table_list, i64 16), align 8
  %20 = getelementptr inbounds %struct.h5dump_table_items_t, ptr %19, i64 %16, i32 1
  store i64 %0, ptr %20, align 8
  %21 = tail call i32 @H5Iinc_ref(i64 noundef %0) #22
  %22 = icmp slt i32 %21, 0
  br i1 %22, label %.sink.split, label %23

23:                                               ; preds = %14
  %24 = load ptr, ptr getelementptr inbounds (i8, ptr @table_list, i64 16), align 8
  %25 = getelementptr inbounds %struct.h5dump_table_items_t, ptr %24, i64 %16
  %26 = getelementptr inbounds i8, ptr %25, i64 16
  %27 = getelementptr inbounds i8, ptr %25, i64 24
  %28 = getelementptr inbounds i8, ptr %25, i64 32
  %29 = call i32 @init_objs(i64 noundef %0, ptr noundef nonnull %3, ptr noundef nonnull %26, ptr noundef nonnull %27, ptr noundef nonnull %28) #22
  %30 = icmp slt i32 %29, 0
  br i1 %30, label %31, label %35

31:                                               ; preds = %23
  %32 = call i32 @H5Idec_ref(i64 noundef %0) #22
  br label %.sink.split

.sink.split:                                      ; preds = %14, %31
  %33 = load i64, ptr getelementptr inbounds (i8, ptr @table_list, i64 8), align 8
  %34 = add i64 %33, -1
  store i64 %34, ptr getelementptr inbounds (i8, ptr @table_list, i64 8), align 8
  br label %35

35:                                               ; preds = %.sink.split, %23, %7
  %.0 = phi i64 [ -1, %7 ], [ %16, %23 ], [ -1, %.sink.split ]
  ret i64 %.0
}